; ModuleID = '9/1380.c'
source_filename = "9/1380.c"
target datalayout = "e-m:e-p270:32:32-p271:32:32-p272:64:64-i64:64-f80:128-n8:16:32:64-S128"
target triple = "x86_64-pc-linux-gnu"

%struct.patient = type { [10 x i8], i32 }

@.str = private unnamed_addr constant [3 x i8] c"%d\00", align 1
@.str.1 = private unnamed_addr constant [6 x i8] c"%s %d\00", align 1
@.str.2 = private unnamed_addr constant [4 x i8] c"%s\0A\00", align 1
@p = common dso_local global [100 x %struct.patient] zeroinitializer, align 16
@e = common dso_local global %struct.patient zeroinitializer, align 4
@old = common dso_local global [100 x %struct.patient] zeroinitializer, align 16
@young = common dso_local global [100 x %struct.patient] zeroinitializer, align 16

; Function Attrs: noinline nounwind uwtable
define dso_local i32 @main() #0 {
  %1 = alloca i32, align 4
  %2 = alloca i32, align 4
  %3 = alloca i32, align 4
  %4 = alloca i32, align 4
  %5 = alloca i32, align 4
  %6 = alloca i32, align 4
  %7 = alloca i32, align 4
  %8 = alloca [100 x %struct.patient], align 16
  %9 = alloca [100 x %struct.patient], align 16
  %10 = alloca [100 x %struct.patient], align 16
  store i32 0, i32* %1, align 4
  store i32 0, i32* %4, align 4
  store i32 0, i32* %5, align 4
  store i32 -1, i32* %6, align 4
  store i32 -1, i32* %7, align 4
  %11 = call i32 (i8*, ...) @__isoc99_scanf(i8* getelementptr inbounds ([3 x i8], [3 x i8]* @.str, i64 0, i64 0), i32* %2)
  store i32 0, i32* %3, align 4
  br label %12

12:                                               ; preds = %60, %0
  %13 = load i32, i32* %3, align 4
  %14 = load i32, i32* %2, align 4
  %15 = icmp slt i32 %13, %14
  br i1 %15, label %16, label %63

16:                                               ; preds = %12
  %17 = load i32, i32* %3, align 4
  %18 = sext i32 %17 to i64
  %19 = getelementptr inbounds [100 x %struct.patient], [100 x %struct.patient]* %8, i64 0, i64 %18
  %20 = getelementptr inbounds %struct.patient, %struct.patient* %19, i32 0, i32 0
  %21 = getelementptr inbounds [10 x i8], [10 x i8]* %20, i64 0, i64 0
  %22 = load i32, i32* %3, align 4
  %23 = sext i32 %22 to i64
  %24 = getelementptr inbounds [100 x %struct.patient], [100 x %struct.patient]* %8, i64 0, i64 %23
  %25 = getelementptr inbounds %struct.patient, %struct.patient* %24, i32 0, i32 1
  %26 = call i32 (i8*, ...) @__isoc99_scanf(i8* getelementptr inbounds ([6 x i8], [6 x i8]* @.str.1, i64 0, i64 0), i8* %21, i32* %25)
  %27 = load i32, i32* %3, align 4
  %28 = sext i32 %27 to i64
  %29 = getelementptr inbounds [100 x %struct.patient], [100 x %struct.patient]* %8, i64 0, i64 %28
  %30 = getelementptr inbounds %struct.patient, %struct.patient* %29, i32 0, i32 1
  %31 = load i32, i32* %30, align 4
  %32 = icmp sge i32 %31, 60
  br i1 %32, label %33, label %46

33:                                               ; preds = %16
  %34 = load i32, i32* %6, align 4
  %35 = add nsw i32 %34, 1
  store i32 %35, i32* %6, align 4
  %36 = load i32, i32* %4, align 4
  %37 = sext i32 %36 to i64
  %38 = getelementptr inbounds [100 x %struct.patient], [100 x %struct.patient]* %9, i64 0, i64 %37
  %39 = load i32, i32* %3, align 4
  %40 = sext i32 %39 to i64
  %41 = getelementptr inbounds [100 x %struct.patient], [100 x %struct.patient]* %8, i64 0, i64 %40
  %42 = bitcast %struct.patient* %38 to i8*
  %43 = bitcast %struct.patient* %41 to i8*
  call void @llvm.memcpy.p0i8.p0i8.i64(i8* align 16 %42, i8* align 16 %43, i64 16, i1 false)
  %44 = load i32, i32* %4, align 4
  %45 = add nsw i32 %44, 1
  store i32 %45, i32* %4, align 4
  br label %59

46:                                               ; preds = %16
  %47 = load i32, i32* %7, align 4
  %48 = add nsw i32 %47, 1
  store i32 %48, i32* %7, align 4
  %49 = load i32, i32* %5, align 4
  %50 = sext i32 %49 to i64
  %51 = getelementptr inbounds [100 x %struct.patient], [100 x %struct.patient]* %10, i64 0, i64 %50
  %52 = load i32, i32* %3, align 4
  %53 = sext i32 %52 to i64
  %54 = getelementptr inbounds [100 x %struct.patient], [100 x %struct.patient]* %8, i64 0, i64 %53
  %55 = bitcast %struct.patient* %51 to i8*
  %56 = bitcast %struct.patient* %54 to i8*
  call void @llvm.memcpy.p0i8.p0i8.i64(i8* align 16 %55, i8* align 16 %56, i64 16, i1 false)
  %57 = load i32, i32* %5, align 4
  %58 = add nsw i32 %57, 1
  store i32 %58, i32* %5, align 4
  br label %59

59:                                               ; preds = %46, %33
  br label %60

60:                                               ; preds = %59
  %61 = load i32, i32* %3, align 4
  %62 = add nsw i32 %61, 1
  store i32 %62, i32* %3, align 4
  br label %12

63:                                               ; preds = %12
  store i32 120, i32* %3, align 4
  br label %64

64:                                               ; preds = %93, %63
  %65 = load i32, i32* %3, align 4
  %66 = icmp sge i32 %65, 60
  br i1 %66, label %67, label %96

67:                                               ; preds = %64
  store i32 0, i32* %4, align 4
  br label %68

68:                                               ; preds = %89, %67
  %69 = load i32, i32* %4, align 4
  %70 = load i32, i32* %6, align 4
  %71 = add nsw i32 %70, 1
  %72 = icmp slt i32 %69, %71
  br i1 %72, label %73, label %92

73:                                               ; preds = %68
  %74 = load i32, i32* %4, align 4
  %75 = sext i32 %74 to i64
  %76 = getelementptr inbounds [100 x %struct.patient], [100 x %struct.patient]* %9, i64 0, i64 %75
  %77 = getelementptr inbounds %struct.patient, %struct.patient* %76, i32 0, i32 1
  %78 = load i32, i32* %77, align 4
  %79 = load i32, i32* %3, align 4
  %80 = icmp eq i32 %78, %79
  br i1 %80, label %81, label %88

81:                                               ; preds = %73
  %82 = load i32, i32* %4, align 4
  %83 = sext i32 %82 to i64
  %84 = getelementptr inbounds [100 x %struct.patient], [100 x %struct.patient]* %9, i64 0, i64 %83
  %85 = getelementptr inbounds %struct.patient, %struct.patient* %84, i32 0, i32 0
  %86 = getelementptr inbounds [10 x i8], [10 x i8]* %85, i64 0, i64 0
  %87 = call i32 (i8*, ...) @printf(i8* getelementptr inbounds ([4 x i8], [4 x i8]* @.str.2, i64 0, i64 0), i8* %86)
  br label %88

88:                                               ; preds = %81, %73
  br label %89

89:                                               ; preds = %88
  %90 = load i32, i32* %4, align 4
  %91 = add nsw i32 %90, 1
  store i32 %91, i32* %4, align 4
  br label %68

92:                                               ; preds = %68
  br label %93

93:                                               ; preds = %92
  %94 = load i32, i32* %3, align 4
  %95 = add nsw i32 %94, -1
  store i32 %95, i32* %3, align 4
  br label %64

96:                                               ; preds = %64
  store i32 0, i32* %3, align 4
  br label %97

97:                                               ; preds = %109, %96
  %98 = load i32, i32* %3, align 4
  %99 = load i32, i32* %7, align 4
  %100 = add nsw i32 %99, 1
  %101 = icmp slt i32 %98, %100
  br i1 %101, label %102, label %112

102:                                              ; preds = %97
  %103 = load i32, i32* %3, align 4
  %104 = sext i32 %103 to i64
  %105 = getelementptr inbounds [100 x %struct.patient], [100 x %struct.patient]* %10, i64 0, i64 %104
  %106 = getelementptr inbounds %struct.patient, %struct.patient* %105, i32 0, i32 0
  %107 = getelementptr inbounds [10 x i8], [10 x i8]* %106, i64 0, i64 0
  %108 = call i32 (i8*, ...) @printf(i8* getelementptr inbounds ([4 x i8], [4 x i8]* @.str.2, i64 0, i64 0), i8* %107)
  br label %109

109:                                              ; preds = %102
  %110 = load i32, i32* %3, align 4
  %111 = add nsw i32 %110, 1
  store i32 %111, i32* %3, align 4
  br label %97

112:                                              ; preds = %97
  ret i32 0
}

declare dso_local i32 @__isoc99_scanf(i8*, ...) #1

; Function Attrs: argmemonly nounwind willreturn
declare void @llvm.memcpy.p0i8.p0i8.i64(i8* noalias nocapture writeonly, i8* noalias nocapture readonly, i64, i1 immarg) #2

declare dso_local i32 @printf(i8*, ...) #1


!llvm.module.flags = !{!0}
!llvm.ident = !{!1}

!0 = !{i32 1, !"wchar_size", i32 4}
!1 = !{!"clang version 10.0.0-4ubuntu1 "}
